; Function Attrs: uwtable
define void @_ZN7rocksdb23BlockBasedTableIterator15CheckOutOfBoundEv(ptr noundef nonnull align 8 dereferenceable(784) %this) local_unnamed_addr #0 align 2 {
entry:
  %ref.tmp = alloca %"class.rocksdb::Slice", align 8
  %read_options_ = getelementptr inbounds i8, ptr %this, i64 56
  %0 = load ptr, ptr %read_options_, align 8
  %iterate_upper_bound = getelementptr inbounds i8, ptr %0, i64 104
  %1 = load ptr, ptr %iterate_upper_bound, align 8
  %cmp.not = icmp eq ptr %1, null
  %block_upper_bound_check_ = getelementptr inbounds i8, ptr %this, i64 683
  %2 = load i8, ptr %block_upper_bound_check_, align 1
  %cmp2.not = icmp eq i8 %2, 1
  %or.cond = select i1 %cmp.not, i1 true, i1 %cmp2.not
  br i1 %or.cond, label %if.end, label %land.lhs.true3

land.lhs.true3:                                   ; preds = %entry
  %vtable = load ptr, ptr %this, align 8
  %vfn = getelementptr inbounds i8, ptr %vtable, i64 24
  %3 = load ptr, ptr %vfn, align 8
  %call = tail call noundef zeroext i1 %3(ptr noundef nonnull align 8 dereferenceable(784) %this)
  br i1 %call, label %if.then, label %if.end

if.then:                                          ; preds = %land.lhs.true3
  %user_comparator_ = getelementptr inbounds i8, ptr %this, i64 72
  %4 = load ptr, ptr %read_options_, align 8
  %iterate_upper_bound5 = getelementptr inbounds i8, ptr %4, i64 104
  %5 = load ptr, ptr %iterate_upper_bound5, align 8
  %vtable6 = load ptr, ptr %this, align 8
  %vfn7 = getelementptr inbounds i8, ptr %vtable6, i64 96
  %6 = load ptr, ptr %vfn7, align 8
  %call8 = tail call { ptr, i64 } %6(ptr noundef nonnull align 8 dereferenceable(784) %this)
  %7 = extractvalue { ptr, i64 } %call8, 0
  store ptr %7, ptr %ref.tmp, align 8
  %8 = getelementptr inbounds i8, ptr %ref.tmp, i64 8
  %9 = extractvalue { ptr, i64 } %call8, 1
  store i64 %9, ptr %8, align 8
  br i1 icmp ne (ptr @_ZTHN7rocksdb10perf_levelE, ptr null), label %10, label %_ZTWN7rocksdb10perf_levelE.exit.i

10:                                               ; preds = %if.then
  tail call void @_ZTHN7rocksdb10perf_levelE()
  br label %_ZTWN7rocksdb10perf_levelE.exit.i

_ZTWN7rocksdb10perf_levelE.exit.i:                ; preds = %10, %if.then
  %11 = tail call noundef align 1 ptr @llvm.threadlocal.address.p0(ptr align 1 @_ZN7rocksdb10perf_levelE)
  %12 = load i8, ptr %11, align 1
  %cmp.i = icmp ugt i8 %12, 1
  br i1 %cmp.i, label %if.then.i, label %_ZNK7rocksdb21UserComparatorWrapper23CompareWithoutTimestampERKNS_5SliceEbS3_b.exit

if.then.i:                                        ; preds = %_ZTWN7rocksdb10perf_levelE.exit.i
  br i1 icmp ne (ptr @_ZTHN7rocksdb12perf_contextE, ptr null), label %13, label %_ZTWN7rocksdb12perf_contextE.exit.i

13:                                               ; preds = %if.then.i
  tail call void @_ZTHN7rocksdb12perf_contextE()
  br label %_ZTWN7rocksdb12perf_contextE.exit.i

_ZTWN7rocksdb12perf_contextE.exit.i:              ; preds = %13, %if.then.i
  %14 = tail call noundef align 8 ptr @llvm.threadlocal.address.p0(ptr align 8 @_ZN7rocksdb12perf_contextE)
  %15 = load i64, ptr %14, align 8
  %add.i = add i64 %15, 1
  store i64 %add.i, ptr %14, align 8
  br label %_ZNK7rocksdb21UserComparatorWrapper23CompareWithoutTimestampERKNS_5SliceEbS3_b.exit

_ZNK7rocksdb21UserComparatorWrapper23CompareWithoutTimestampERKNS_5SliceEbS3_b.exit: ; preds = %_ZTWN7rocksdb10perf_levelE.exit.i, %_ZTWN7rocksdb12perf_contextE.exit.i
  %16 = load ptr, ptr %user_comparator_, align 8
  %vtable.i = load ptr, ptr %16, align 8
  %vfn.i = getelementptr inbounds i8, ptr %vtable.i, i64 208
  %17 = load ptr, ptr %vfn.i, align 8
  %call.i = call noundef i32 %17(ptr noundef nonnull align 8 dereferenceable(48) %16, ptr noundef nonnull align 8 dereferenceable(16) %5, i1 noundef zeroext false, ptr noundef nonnull align 8 dereferenceable(16) %ref.tmp, i1 noundef zeroext true)
  %cmp10 = icmp slt i32 %call.i, 1
  %is_out_of_bound_ = getelementptr inbounds i8, ptr %this, i64 682
  %frombool = zext i1 %cmp10 to i8
  store i8 %frombool, ptr %is_out_of_bound_, align 2
  br label %if.end

if.end:                                           ; preds = %_ZNK7rocksdb21UserComparatorWrapper23CompareWithoutTimestampERKNS_5SliceEbS3_b.exit, %land.lhs.true3, %entry
  ret void
}